target datalayout = "e-m:e-p270:32:32-p271:32:32-p272:64:64-i64:64-i128:128-f80:128-n8:16:32:64-S128"
target triple = "x86_64-pc-linux-gnu"

%"class.duckdb_re2::ByteMapBuilder" = type { %"class.duckdb_re2::Bitmap256", [256 x i32], i32, %"class.std::vector", %"class.std::vector" }
%"class.duckdb_re2::Bitmap256" = type { [4 x i64] }
%"class.std::vector" = type { %"struct.std::_Vector_base" }
%"struct.std::_Vector_base" = type { %"struct.std::_Vector_base<std::pair<int, int>, std::allocator<std::pair<int, int>>>::_Vector_impl" }
%"struct.std::_Vector_base<std::pair<int, int>, std::allocator<std::pair<int, int>>>::_Vector_impl" = type { %"struct.std::_Vector_base<std::pair<int, int>, std::allocator<std::pair<int, int>>>::_Vector_impl_data" }
%"struct.std::_Vector_base<std::pair<int, int>, std::allocator<std::pair<int, int>>>::_Vector_impl_data" = type { ptr, ptr, ptr }

; Function Attrs: mustprogress uwtable
define hidden void @_ZN10duckdb_re214ByteMapBuilder5BuildEPhPi(ptr noundef nonnull align 8 dereferenceable(1112) %0, ptr noundef %1, ptr noundef %2) #0 align 2 {
  %4 = alloca ptr, align 8
  %5 = alloca ptr, align 8
  %6 = alloca ptr, align 8
  %7 = alloca i32, align 4
  %8 = alloca i32, align 4
  %9 = alloca i8, align 1
  store ptr %0, ptr %4, align 8, !tbaa !117
  store ptr %1, ptr %5, align 8, !tbaa !113
  store ptr %2, ptr %6, align 8, !tbaa !100
  %10 = load ptr, ptr %4, align 8
  %11 = getelementptr inbounds nuw %"class.duckdb_re2::ByteMapBuilder", ptr %10, i32 0, i32 2
  store i32 0, ptr %11, align 8, !tbaa !142
  call void @llvm.lifetime.start.p0(i64 4, ptr %7) #17
  store i32 0, ptr %7, align 4, !tbaa !8
  br label %12

12:                                               ; preds = %38, %3
  %13 = load i32, ptr %7, align 4, !tbaa !8
  %14 = icmp slt i32 %13, 256
  br i1 %14, label %15, label %39

15:                                               ; preds = %12
  call void @llvm.lifetime.start.p0(i64 4, ptr %8) #17
  %16 = getelementptr inbounds nuw %"class.duckdb_re2::ByteMapBuilder", ptr %10, i32 0, i32 0
  %17 = load i32, ptr %7, align 4, !tbaa !8
  %18 = call noundef i32 @_ZNK10duckdb_re29Bitmap25614FindNextSetBitEi(ptr noundef nonnull align 8 dereferenceable(32) %16, i32 noundef %17)
  store i32 %18, ptr %8, align 4, !tbaa !8
  call void @llvm.lifetime.start.p0(i64 1, ptr %9) #17
  %19 = getelementptr inbounds nuw %"class.duckdb_re2::ByteMapBuilder", ptr %10, i32 0, i32 1
  %20 = load i32, ptr %8, align 4, !tbaa !8
  %21 = sext i32 %20 to i64
  %22 = getelementptr inbounds [256 x i32], ptr %19, i64 0, i64 %21
  %23 = load i32, ptr %22, align 4, !tbaa !8
  %24 = call noundef i32 @_ZN10duckdb_re214ByteMapBuilder7RecolorEi(ptr noundef nonnull align 8 dereferenceable(1112) %10, i32 noundef %23)
  %25 = trunc i32 %24 to i8
  store i8 %25, ptr %9, align 1, !tbaa !10
  br label %26

26:                                               ; preds = %30, %15
  %27 = load i32, ptr %7, align 4, !tbaa !8
  %28 = load i32, ptr %8, align 4, !tbaa !8
  %29 = icmp sle i32 %27, %28
  br i1 %29, label %30, label %38

30:                                               ; preds = %26
  %31 = load i8, ptr %9, align 1, !tbaa !10
  %32 = load ptr, ptr %5, align 8, !tbaa !113
  %33 = load i32, ptr %7, align 4, !tbaa !8
  %34 = sext i32 %33 to i64
  %35 = getelementptr inbounds i8, ptr %32, i64 %34
  store i8 %31, ptr %35, align 1, !tbaa !10
  %36 = load i32, ptr %7, align 4, !tbaa !8
  %37 = add nsw i32 %36, 1
  store i32 %37, ptr %7, align 4, !tbaa !8
  br label %26, !llvm.loop !149

38:                                               ; preds = %26
  call void @llvm.lifetime.end.p0(i64 1, ptr %9) #17
  call void @llvm.lifetime.end.p0(i64 4, ptr %8) #17
  br label %12, !llvm.loop !150

39:                                               ; preds = %12
  %40 = getelementptr inbounds nuw %"class.duckdb_re2::ByteMapBuilder", ptr %10, i32 0, i32 2
  %41 = load i32, ptr %40, align 8, !tbaa !142
  %42 = load ptr, ptr %6, align 8, !tbaa !100
  store i32 %41, ptr %42, align 4, !tbaa !8
  call void @llvm.lifetime.end.p0(i64 4, ptr %7) #17
  ret void
}