; Function Attrs: mustprogress uwtable
define hidden void @_ZN10duckdb_re214ByteMapBuilder5BuildEPhPi(ptr noundef nonnull align 8 dereferenceable(1112) initializes((1056, 1060)) %0, ptr noundef writeonly captures(none) %1, ptr noundef writeonly captures(none) %2) local_unnamed_addr #1 align 2 {
  %4 = getelementptr inbounds nuw i8, ptr %0, i64 1056
  store i32 0, ptr %4, align 8, !tbaa !116
  %5 = getelementptr inbounds nuw i8, ptr %0, i64 32
  br label %7

.loopexit:                                        ; preds = %.lr.ph.preheader, %7
  %.1.lcssa = phi i32 [ %.012, %7 ], [ %18, %.lr.ph.preheader ]
  %6 = icmp slt i32 %.1.lcssa, 256
  br i1 %6, label %7, label %19, !llvm.loop !127

7:                                                ; preds = %3, %.loopexit
  %.012 = phi i32 [ 0, %3 ], [ %.1.lcssa, %.loopexit ]
  %8 = tail call noundef i32 @_ZNK10duckdb_re29Bitmap25614FindNextSetBitEi(ptr noundef nonnull align 8 dereferenceable(32) %0, i32 noundef %.012)
  %9 = sext i32 %8 to i64
  %10 = getelementptr inbounds [256 x i32], ptr %5, i64 0, i64 %9
  %11 = load i32, ptr %10, align 4, !tbaa !76
  %12 = tail call noundef i32 @_ZN10duckdb_re214ByteMapBuilder7RecolorEi(ptr noundef nonnull align 8 dereferenceable(1112) %0, i32 noundef %11)
  %.not10 = icmp sgt i32 %.012, %8
  br i1 %.not10, label %.loopexit, label %.lr.ph.preheader

.lr.ph.preheader:                                 ; preds = %7
  %13 = trunc i32 %12 to i8
  %14 = sext i32 %.012 to i64
  %scevgep = getelementptr i8, ptr %1, i64 %14
  %15 = sub i32 %8, %.012
  %16 = zext i32 %15 to i64
  %17 = add nuw nsw i64 %16, 1
  tail call void @llvm.memset.p0.i64(ptr noundef nonnull align 1 dereferenceable(1) %scevgep, i8 %13, i64 %17, i1 false), !tbaa !8
  %18 = add i32 %8, 1
  br label %.loopexit

19:                                               ; preds = %.loopexit
  %20 = load i32, ptr %4, align 8, !tbaa !116
  store i32 %20, ptr %2, align 4, !tbaa !76
  ret void
}